target datalayout = "e-m:e-p270:32:32-p271:32:32-p272:64:64-i64:64-i128:128-f80:128-n8:16:32:64-S128"
target triple = "x86_64-pc-linux-gnu"

%struct._wmem_map_t = type { i32, i64, ptr, ptr, ptr, i32, i32, ptr, ptr }
%struct._wmem_map_item_t = type { ptr, ptr, ptr }

@x = internal global i32 0, align 4

; Function Attrs: null_pointer_is_valid sspstrong uwtable
define ptr @wmem_map_lookup(ptr noundef %0, ptr noundef %1) #0 {
  %3 = alloca ptr, align 8
  %4 = alloca ptr, align 8
  %5 = alloca ptr, align 8
  %6 = alloca ptr, align 8
  %7 = alloca i32, align 4
  store ptr %0, ptr %4, align 8
  store ptr %1, ptr %5, align 8
  call void @llvm.lifetime.start.p0(i64 8, ptr %6) #8
  %8 = load ptr, ptr %4, align 8
  %9 = icmp eq ptr %8, null
  br i1 %9, label %15, label %10

10:                                               ; preds = %2
  %11 = load ptr, ptr %4, align 8
  %12 = getelementptr inbounds nuw %struct._wmem_map_t, ptr %11, i32 0, i32 2
  %13 = load ptr, ptr %12, align 8
  %14 = icmp eq ptr %13, null
  br i1 %14, label %15, label %16

15:                                               ; preds = %10, %2
  store ptr null, ptr %3, align 8
  store i32 1, ptr %7, align 4
  br label %58

16:                                               ; preds = %10
  %17 = load ptr, ptr %4, align 8
  %18 = getelementptr inbounds nuw %struct._wmem_map_t, ptr %17, i32 0, i32 2
  %19 = load ptr, ptr %18, align 8
  %20 = load ptr, ptr %4, align 8
  %21 = getelementptr inbounds nuw %struct._wmem_map_t, ptr %20, i32 0, i32 3
  %22 = load ptr, ptr %21, align 8
  %23 = load ptr, ptr %5, align 8
  %24 = call i32 %22(ptr noundef %23)
  %25 = load i32, ptr @x, align 4
  %26 = mul i32 %24, %25
  %27 = load ptr, ptr %4, align 8
  %28 = getelementptr inbounds nuw %struct._wmem_map_t, ptr %27, i32 0, i32 1
  %29 = load i64, ptr %28, align 8
  %30 = sub i64 32, %29
  %31 = trunc i64 %30 to i32
  %32 = lshr i32 %26, %31
  %33 = zext i32 %32 to i64
  %34 = getelementptr ptr, ptr %19, i64 %33
  %35 = load ptr, ptr %34, align 8
  store ptr %35, ptr %6, align 8
  br label %36

36:                                               ; preds = %53, %16
  %37 = load ptr, ptr %6, align 8
  %38 = icmp ne ptr %37, null
  br i1 %38, label %39, label %57

39:                                               ; preds = %36
  %40 = load ptr, ptr %4, align 8
  %41 = getelementptr inbounds nuw %struct._wmem_map_t, ptr %40, i32 0, i32 4
  %42 = load ptr, ptr %41, align 8
  %43 = load ptr, ptr %5, align 8
  %44 = load ptr, ptr %6, align 8
  %45 = getelementptr inbounds nuw %struct._wmem_map_item_t, ptr %44, i32 0, i32 0
  %46 = load ptr, ptr %45, align 8
  %47 = call i32 %42(ptr noundef %43, ptr noundef %46)
  %48 = icmp ne i32 %47, 0
  br i1 %48, label %49, label %53

49:                                               ; preds = %39
  %50 = load ptr, ptr %6, align 8
  %51 = getelementptr inbounds nuw %struct._wmem_map_item_t, ptr %50, i32 0, i32 1
  %52 = load ptr, ptr %51, align 8
  store ptr %52, ptr %3, align 8
  store i32 1, ptr %7, align 4
  br label %58

53:                                               ; preds = %39
  %54 = load ptr, ptr %6, align 8
  %55 = getelementptr inbounds nuw %struct._wmem_map_item_t, ptr %54, i32 0, i32 2
  %56 = load ptr, ptr %55, align 8
  store ptr %56, ptr %6, align 8
  br label %36, !llvm.loop !11

57:                                               ; preds = %36
  store ptr null, ptr %3, align 8
  store i32 1, ptr %7, align 4
  br label %58

58:                                               ; preds = %57, %49, %15
  call void @llvm.lifetime.end.p0(i64 8, ptr %6) #8
  %59 = load ptr, ptr %3, align 8
  ret ptr %59
}