; Function Attrs: null_pointer_is_valid sspstrong uwtable
define ptr @wmem_map_lookup(ptr noundef readonly captures(address_is_null) %0, ptr noundef %1) local_unnamed_addr #0 {
  %3 = icmp eq ptr %0, null
  br i1 %3, label %.loopexit, label %4

4:                                                ; preds = %2
  %5 = getelementptr inbounds nuw i8, ptr %0, i64 16
  %6 = load ptr, ptr %5, align 8
  %7 = icmp eq ptr %6, null
  br i1 %7, label %.loopexit, label %8

8:                                                ; preds = %4
  %9 = getelementptr inbounds nuw i8, ptr %0, i64 24
  %10 = load ptr, ptr %9, align 8
  %11 = tail call i32 %10(ptr noundef %1)
  %12 = load i32, ptr @x, align 4
  %13 = mul i32 %12, %11
  %14 = getelementptr inbounds nuw i8, ptr %0, i64 8
  %15 = load i64, ptr %14, align 8
  %16 = trunc i64 %15 to i32
  %17 = sub i32 32, %16
  %18 = lshr i32 %13, %17
  %19 = zext i32 %18 to i64
  %20 = getelementptr ptr, ptr %6, i64 %19
  %.018 = load ptr, ptr %20, align 8
  %.not19 = icmp eq ptr %.018, null
  br i1 %.not19, label %.loopexit, label %.lr.ph

.lr.ph:                                           ; preds = %8
  %21 = getelementptr inbounds nuw i8, ptr %0, i64 32
  br label %22

22:                                               ; preds = %.lr.ph, %29
  %.020 = phi ptr [ %.018, %.lr.ph ], [ %.0, %29 ]
  %23 = load ptr, ptr %21, align 8
  %24 = load ptr, ptr %.020, align 8
  %25 = tail call i32 %23(ptr noundef %1, ptr noundef %24)
  %.not16 = icmp eq i32 %25, 0
  br i1 %.not16, label %29, label %26

26:                                               ; preds = %22
  %27 = getelementptr inbounds nuw i8, ptr %.020, i64 8
  %28 = load ptr, ptr %27, align 8
  br label %.loopexit

29:                                               ; preds = %22
  %30 = getelementptr inbounds nuw i8, ptr %.020, i64 16
  %.0 = load ptr, ptr %30, align 8
  %.not = icmp eq ptr %.0, null
  br i1 %.not, label %.loopexit, label %22, !llvm.loop !12

.loopexit:                                        ; preds = %29, %8, %2, %4, %26
  %.013 = phi ptr [ %28, %26 ], [ null, %4 ], [ null, %2 ], [ null, %8 ], [ null, %29 ]
  ret ptr %.013
}